target datalayout = "e-m:e-p270:32:32-p271:32:32-p272:64:64-i64:64-i128:128-f80:128-n8:16:32:64-S128"
target triple = "x86_64-pc-linux-gnu"

%struct.h5tools_dump_header_t = type { ptr, ptr, ptr, ptr, ptr, ptr, ptr, ptr, ptr, ptr, ptr, ptr, ptr, ptr, ptr, ptr, ptr, ptr, ptr, ptr, ptr, ptr, ptr, ptr, ptr, ptr, ptr, ptr, ptr, ptr, ptr, ptr, ptr, ptr, ptr, ptr, ptr, ptr, ptr, ptr, ptr, ptr, ptr, ptr, ptr, ptr, ptr, ptr, ptr, ptr, ptr, ptr, ptr, ptr, ptr, ptr, ptr, ptr, ptr, ptr, ptr, ptr, ptr, ptr, ptr, ptr, ptr, ptr, ptr, ptr, ptr, ptr, ptr, ptr, ptr, ptr, ptr, ptr, ptr, ptr, ptr, ptr, ptr, ptr, ptr, ptr, ptr, ptr, ptr, ptr, ptr, ptr, ptr, ptr, ptr }
%struct.h5tools_str_t = type { ptr, i64, i64 }
%struct.h5tool_format_t = type { i8, ptr, ptr, ptr, ptr, ptr, ptr, ptr, ptr, ptr, ptr, ptr, ptr, ptr, ptr, ptr, ptr, ptr, i32, i32, i32, ptr, ptr, ptr, i32, ptr, ptr, ptr, ptr, ptr, ptr, ptr, ptr, ptr, ptr, ptr, ptr, ptr, ptr, ptr, ptr, i32, i64, ptr, ptr, ptr, ptr, ptr, i32, ptr, i32, i32, ptr, i32, ptr, ptr, ptr, ptr, i32, i32 }
%struct.h5tools_context_t = type { i64, i64, i32, i32, [32 x i64], [32 x i64], i32, i64, i32, i64, i32, i32, [32 x i64], [32 x i64], i64, ptr, ptr, i32, i32 }

@.str.20 = private unnamed_addr constant [3 x i8] c"%s\00", align 1
@.str.21 = private unnamed_addr constant [2 x i8] c" \00", align 1
@h5tools_dump_header_format = global ptr null, align 8
@.str.59 = private unnamed_addr constant [7 x i8] c"%s %s \00", align 1

; Function Attrs: nounwind uwtable
define void @h5tools_dump_datatype(ptr noundef %0, ptr noundef %1, ptr noundef %2, i64 noundef %3) #0 {
  %5 = alloca ptr, align 8
  %6 = alloca ptr, align 8
  %7 = alloca ptr, align 8
  %8 = alloca i64, align 8
  %9 = alloca %struct.h5tools_str_t, align 8
  %10 = alloca i64, align 8
  %11 = alloca i64, align 8
  store ptr %0, ptr %5, align 8, !tbaa !8
  store ptr %1, ptr %6, align 8, !tbaa !10
  store ptr %2, ptr %7, align 8, !tbaa !12
  store i64 %3, ptr %8, align 8, !tbaa !14
  call void @llvm.lifetime.start.p0(i64 24, ptr %9) #10
  call void @llvm.lifetime.start.p0(i64 8, ptr %10) #10
  store i64 80, ptr %10, align 8, !tbaa !14
  call void @llvm.lifetime.start.p0(i64 8, ptr %11) #10
  %12 = load ptr, ptr %7, align 8, !tbaa !12
  %13 = getelementptr inbounds nuw %struct.h5tools_context_t, ptr %12, i32 0, i32 14
  %14 = load i64, ptr %13, align 8, !tbaa !26
  store i64 %14, ptr %11, align 8, !tbaa !14
  call void @llvm.memset.p0.i64(ptr align 8 %9, i8 0, i64 24, i1 false)
  %15 = load ptr, ptr %6, align 8, !tbaa !10
  %16 = getelementptr inbounds nuw %struct.h5tool_format_t, ptr %15, i32 0, i32 41
  %17 = load i32, ptr %16, align 8, !tbaa !23
  %18 = icmp ugt i32 %17, 0
  br i1 %18, label %19, label %24

19:                                               ; preds = %4
  %20 = load ptr, ptr %6, align 8, !tbaa !10
  %21 = getelementptr inbounds nuw %struct.h5tool_format_t, ptr %20, i32 0, i32 41
  %22 = load i32, ptr %21, align 8, !tbaa !23
  %23 = zext i32 %22 to i64
  store i64 %23, ptr %10, align 8, !tbaa !14
  br label %24

24:                                               ; preds = %19, %4
  %25 = load ptr, ptr %7, align 8, !tbaa !12
  %26 = getelementptr inbounds nuw %struct.h5tools_context_t, ptr %25, i32 0, i32 2
  store i32 1, ptr %26, align 8, !tbaa !46
  %27 = call ptr @h5tools_str_reset(ptr noundef %9)
  %28 = load ptr, ptr @h5tools_dump_header_format, align 8, !tbaa !3
  %29 = getelementptr inbounds nuw %struct.h5tools_dump_header_t, ptr %28, i32 0, i32 11
  %30 = load ptr, ptr %29, align 8, !tbaa !47
  %31 = load ptr, ptr @h5tools_dump_header_format, align 8, !tbaa !3
  %32 = getelementptr inbounds nuw %struct.h5tools_dump_header_t, ptr %31, i32 0, i32 43
  %33 = load ptr, ptr %32, align 8, !tbaa !49
  %34 = call ptr (ptr, ptr, ...) @h5tools_str_append(ptr noundef %9, ptr noundef @.str.59, ptr noundef %30, ptr noundef %33)
  %35 = load ptr, ptr %5, align 8, !tbaa !8
  %36 = load ptr, ptr %6, align 8, !tbaa !10
  %37 = load ptr, ptr %7, align 8, !tbaa !12
  %38 = load i64, ptr %8, align 8, !tbaa !14
  %39 = call i32 @h5tools_print_datatype(ptr noundef %35, ptr noundef %9, ptr noundef %36, ptr noundef %37, i64 noundef %38, i32 noundef 1)
  %40 = load ptr, ptr @h5tools_dump_header_format, align 8, !tbaa !3
  %41 = getelementptr inbounds nuw %struct.h5tools_dump_header_t, ptr %40, i32 0, i32 44
  %42 = load ptr, ptr %41, align 8, !tbaa !50
  %43 = call i64 @strlen(ptr noundef %42) #11
  %44 = icmp ne i64 %43, 0
  br i1 %44, label %45, label %58

45:                                               ; preds = %24
  %46 = load ptr, ptr @h5tools_dump_header_format, align 8, !tbaa !3
  %47 = getelementptr inbounds nuw %struct.h5tools_dump_header_t, ptr %46, i32 0, i32 44
  %48 = load ptr, ptr %47, align 8, !tbaa !50
  %49 = call ptr (ptr, ptr, ...) @h5tools_str_append(ptr noundef %9, ptr noundef @.str.20, ptr noundef %48)
  %50 = load ptr, ptr @h5tools_dump_header_format, align 8, !tbaa !3
  %51 = getelementptr inbounds nuw %struct.h5tools_dump_header_t, ptr %50, i32 0, i32 12
  %52 = load ptr, ptr %51, align 8, !tbaa !51
  %53 = call i64 @strlen(ptr noundef %52) #11
  %54 = icmp ne i64 %53, 0
  br i1 %54, label %55, label %57

55:                                               ; preds = %45
  %56 = call ptr (ptr, ptr, ...) @h5tools_str_append(ptr noundef %9, ptr noundef @.str.21)
  br label %57

57:                                               ; preds = %55, %45
  br label %58

58:                                               ; preds = %57, %24
  %59 = load ptr, ptr @h5tools_dump_header_format, align 8, !tbaa !3
  %60 = getelementptr inbounds nuw %struct.h5tools_dump_header_t, ptr %59, i32 0, i32 12
  %61 = load ptr, ptr %60, align 8, !tbaa !51
  %62 = call i64 @strlen(ptr noundef %61) #11
  %63 = icmp ne i64 %62, 0
  br i1 %63, label %64, label %69

64:                                               ; preds = %58
  %65 = load ptr, ptr @h5tools_dump_header_format, align 8, !tbaa !3
  %66 = getelementptr inbounds nuw %struct.h5tools_dump_header_t, ptr %65, i32 0, i32 12
  %67 = load ptr, ptr %66, align 8, !tbaa !51
  %68 = call ptr (ptr, ptr, ...) @h5tools_str_append(ptr noundef %9, ptr noundef @.str.20, ptr noundef %67)
  br label %69

69:                                               ; preds = %64, %58
  %70 = load ptr, ptr %5, align 8, !tbaa !8
  %71 = load ptr, ptr %6, align 8, !tbaa !10
  %72 = load ptr, ptr %7, align 8, !tbaa !12
  %73 = load i64, ptr %10, align 8, !tbaa !14
  %74 = call zeroext i1 @h5tools_render_element(ptr noundef %70, ptr noundef %71, ptr noundef %72, ptr noundef %9, ptr noundef %11, i64 noundef %73, i64 noundef 0, i64 noundef 0)
  call void @h5tools_str_close(ptr noundef %9)
  call void @llvm.lifetime.end.p0(i64 8, ptr %11) #10
  call void @llvm.lifetime.end.p0(i64 8, ptr %10) #10
  call void @llvm.lifetime.end.p0(i64 24, ptr %9) #10
  ret void
}