; Function Attrs: nounwind uwtable
define void @h5tools_dump_datatype(ptr noundef %0, ptr noundef %1, ptr noundef initializes((16, 20)) %2, i64 noundef %3) local_unnamed_addr #1 {
  %5 = alloca %struct.h5tools_str_t, align 8
  %6 = alloca i64, align 8
  call void @llvm.lifetime.start.p0(i64 24, ptr nonnull %5) #12
  call void @llvm.lifetime.start.p0(i64 8, ptr nonnull %6) #12
  %7 = getelementptr inbounds nuw i8, ptr %2, i64 1088
  %8 = load i64, ptr %7, align 8, !tbaa !16
  store i64 %8, ptr %6, align 8, !tbaa !19
  call void @llvm.memset.p0.i64(ptr noundef nonnull align 8 dereferenceable(24) %5, i8 0, i64 24, i1 false)
  %9 = getelementptr inbounds nuw i8, ptr %1, i64 320
  %10 = load i32, ptr %9, align 8, !tbaa !10
  %11 = getelementptr inbounds nuw i8, ptr %2, i64 16
  store i32 1, ptr %11, align 8, !tbaa !35
  %12 = call ptr @h5tools_str_reset(ptr noundef nonnull %5) #12
  %13 = load ptr, ptr @h5tools_dump_header_format, align 8, !tbaa !3
  %14 = getelementptr inbounds nuw i8, ptr %13, i64 88
  %15 = load ptr, ptr %14, align 8, !tbaa !36
  %16 = getelementptr inbounds nuw i8, ptr %13, i64 344
  %17 = load ptr, ptr %16, align 8, !tbaa !38
  %18 = call ptr (ptr, ptr, ...) @h5tools_str_append(ptr noundef nonnull %5, ptr noundef nonnull @.str.59, ptr noundef %15, ptr noundef %17) #12
  %19 = call i32 @h5tools_print_datatype(ptr noundef %0, ptr noundef nonnull %5, ptr noundef %1, ptr noundef %2, i64 noundef %3, i32 noundef 1)
  %20 = load ptr, ptr @h5tools_dump_header_format, align 8, !tbaa !3
  %21 = getelementptr inbounds nuw i8, ptr %20, i64 352
  %22 = load ptr, ptr %21, align 8, !tbaa !39
  %char0 = load i8, ptr %22, align 1
  %.not12 = icmp eq i8 %char0, 0
  br i1 %.not12, label %30, label %23

23:                                               ; preds = %4
  %24 = call ptr (ptr, ptr, ...) @h5tools_str_append(ptr noundef nonnull %5, ptr noundef nonnull @.str.20, ptr noundef nonnull %22) #12
  %25 = load ptr, ptr @h5tools_dump_header_format, align 8, !tbaa !3
  %26 = getelementptr inbounds nuw i8, ptr %25, i64 96
  %27 = load ptr, ptr %26, align 8, !tbaa !40
  %char013 = load i8, ptr %27, align 1
  %.not14 = icmp eq i8 %char013, 0
  br i1 %.not14, label %30, label %28

28:                                               ; preds = %23
  %29 = call ptr (ptr, ptr, ...) @h5tools_str_append(ptr noundef nonnull %5, ptr noundef nonnull @.str.21) #12
  %.pre = load ptr, ptr @h5tools_dump_header_format, align 8, !tbaa !3
  br label %30

30:                                               ; preds = %23, %28, %4
  %31 = phi ptr [ %25, %23 ], [ %.pre, %28 ], [ %20, %4 ]
  %32 = getelementptr inbounds nuw i8, ptr %31, i64 96
  %33 = load ptr, ptr %32, align 8, !tbaa !40
  %char015 = load i8, ptr %33, align 1
  %.not16 = icmp eq i8 %char015, 0
  br i1 %.not16, label %36, label %34

34:                                               ; preds = %30
  %35 = call ptr (ptr, ptr, ...) @h5tools_str_append(ptr noundef nonnull %5, ptr noundef nonnull @.str.20, ptr noundef nonnull %33) #12
  br label %36

36:                                               ; preds = %34, %30
  %.not = icmp eq i32 %10, 0
  %narrow = select i1 %.not, i32 80, i32 %10
  %spec.select = zext i32 %narrow to i64
  %37 = call zeroext i1 @h5tools_render_element(ptr noundef %0, ptr noundef nonnull %1, ptr noundef nonnull %2, ptr noundef nonnull %5, ptr noundef nonnull %6, i64 noundef %spec.select, i64 noundef 0, i64 noundef 0) #12
  call void @h5tools_str_close(ptr noundef nonnull %5) #12
  call void @llvm.lifetime.end.p0(i64 8, ptr nonnull %6) #12
  call void @llvm.lifetime.end.p0(i64 24, ptr nonnull %5) #12
  ret void
}